; Function Attrs: nounwind uwtable
define hidden ptr @SDL_GetTrayMenuParentTray_REAL(ptr noundef readonly captures(address_is_null) %0) local_unnamed_addr #0 {
  %.not = icmp eq ptr %0, null
  br i1 %.not, label %2, label %4

2:                                                ; preds = %1
  %3 = tail call zeroext i1 (ptr, ...) @SDL_SetError_REAL(ptr noundef nonnull @.str.7, ptr noundef nonnull @.str.12) #10
  br label %7

4:                                                ; preds = %1
  %5 = getelementptr inbounds nuw i8, ptr %0, i64 24
  %6 = load ptr, ptr %5, align 8
  br label %7

7:                                                ; preds = %4, %2
  %.0 = phi ptr [ %6, %4 ], [ null, %2 ]
  ret ptr %.0
}